target datalayout = "e-m:e-p270:32:32-p271:32:32-p272:64:64-i64:64-i128:128-f80:128-n8:16:32:64-S128"
target triple = "x86_64-pc-linux-gnu"

%union.lv_style_value_t = type { ptr }

; Function Attrs: inlinehint nounwind uwtable
define internal i32 @lv_obj_get_style_border_side(ptr noundef %0, i32 noundef %1) #3 {
  %3 = alloca ptr, align 8
  %4 = alloca i32, align 4
  %5 = alloca %union.lv_style_value_t, align 8
  store ptr %0, ptr %3, align 8, !tbaa !3
  store i32 %1, ptr %4, align 4, !tbaa !7
  call void @llvm.lifetime.start.p0(i64 8, ptr %5) #5
  %6 = load ptr, ptr %3, align 8, !tbaa !3
  %7 = load i32, ptr %4, align 4, !tbaa !7
  %8 = call ptr @lv_obj_get_style_prop(ptr noundef %6, i32 noundef %7, i8 noundef zeroext 52)
  %9 = getelementptr inbounds nuw %union.lv_style_value_t, ptr %5, i32 0, i32 0
  store ptr %8, ptr %9, align 8
  %10 = load i32, ptr %5, align 8, !tbaa !9
  call void @llvm.lifetime.end.p0(i64 8, ptr %5) #5
  ret i32 %10
}

; Function Attrs: inlinehint nounwind uwtable
define internal i32 @lv_obj_get_style_border_width(ptr noundef %0, i32 noundef %1) #3 {
  %3 = alloca ptr, align 8
  %4 = alloca i32, align 4
  %5 = alloca %union.lv_style_value_t, align 8
  store ptr %0, ptr %3, align 8, !tbaa !3
  store i32 %1, ptr %4, align 4, !tbaa !7
  call void @llvm.lifetime.start.p0(i64 8, ptr %5) #5
  %6 = load ptr, ptr %3, align 8, !tbaa !3
  %7 = load i32, ptr %4, align 4, !tbaa !7
  %8 = call ptr @lv_obj_get_style_prop(ptr noundef %6, i32 noundef %7, i8 noundef zeroext 48)
  %9 = getelementptr inbounds nuw %union.lv_style_value_t, ptr %5, i32 0, i32 0
  store ptr %8, ptr %9, align 8
  %10 = load i32, ptr %5, align 8, !tbaa !9
  call void @llvm.lifetime.end.p0(i64 8, ptr %5) #5
  ret i32 %10
}

; Function Attrs: inlinehint nounwind uwtable
define internal i32 @lv_obj_get_style_pad_top(ptr noundef %0, i32 noundef %1) #3 {
  %3 = alloca ptr, align 8
  %4 = alloca i32, align 4
  %5 = alloca %union.lv_style_value_t, align 8
  store ptr %0, ptr %3, align 8, !tbaa !3
  store i32 %1, ptr %4, align 4, !tbaa !7
  call void @llvm.lifetime.start.p0(i64 8, ptr %5) #5
  %6 = load ptr, ptr %3, align 8, !tbaa !3
  %7 = load i32, ptr %4, align 4, !tbaa !7
  %8 = call ptr @lv_obj_get_style_prop(ptr noundef %6, i32 noundef %7, i8 noundef zeroext 16)
  %9 = getelementptr inbounds nuw %union.lv_style_value_t, ptr %5, i32 0, i32 0
  store ptr %8, ptr %9, align 8
  %10 = load i32, ptr %5, align 8, !tbaa !9
  call void @llvm.lifetime.end.p0(i64 8, ptr %5) #5
  ret i32 %10
}

; Function Attrs: inlinehint nounwind uwtable
define internal i32 @lv_obj_get_style_space_top(ptr noundef %0, i32 noundef %1) #3 {
  %3 = alloca ptr, align 8
  %4 = alloca i32, align 4
  %5 = alloca i32, align 4
  %6 = alloca i32, align 4
  %7 = alloca i32, align 4
  store ptr %0, ptr %3, align 8, !tbaa !3
  store i32 %1, ptr %4, align 4, !tbaa !7
  call void @llvm.lifetime.start.p0(i64 4, ptr %5) #5
  %8 = load ptr, ptr %3, align 8, !tbaa !3
  %9 = load i32, ptr %4, align 4, !tbaa !7
  %10 = call i32 @lv_obj_get_style_pad_top(ptr noundef %8, i32 noundef %9)
  store i32 %10, ptr %5, align 4, !tbaa !7
  call void @llvm.lifetime.start.p0(i64 4, ptr %6) #5
  %11 = load ptr, ptr %3, align 8, !tbaa !3
  %12 = load i32, ptr %4, align 4, !tbaa !7
  %13 = call i32 @lv_obj_get_style_border_width(ptr noundef %11, i32 noundef %12)
  store i32 %13, ptr %6, align 4, !tbaa !7
  call void @llvm.lifetime.start.p0(i64 4, ptr %7) #5
  %14 = load ptr, ptr %3, align 8, !tbaa !3
  %15 = load i32, ptr %4, align 4, !tbaa !7
  %16 = call i32 @lv_obj_get_style_border_side(ptr noundef %14, i32 noundef %15)
  store i32 %16, ptr %7, align 4, !tbaa !7
  %17 = load i32, ptr %7, align 4, !tbaa !7
  %18 = and i32 %17, 2
  %19 = icmp ne i32 %18, 0
  br i1 %19, label %20, label %24

20:                                               ; preds = %2
  %21 = load i32, ptr %5, align 4, !tbaa !7
  %22 = load i32, ptr %6, align 4, !tbaa !7
  %23 = add nsw i32 %21, %22
  br label %26

24:                                               ; preds = %2
  %25 = load i32, ptr %5, align 4, !tbaa !7
  br label %26

26:                                               ; preds = %24, %20
  %27 = phi i32 [ %23, %20 ], [ %25, %24 ]
  call void @llvm.lifetime.end.p0(i64 4, ptr %7) #5
  call void @llvm.lifetime.end.p0(i64 4, ptr %6) #5
  call void @llvm.lifetime.end.p0(i64 4, ptr %5) #5
  ret i32 %27
}